target datalayout = "e-m:e-p270:32:32-p271:32:32-p272:64:64-i64:64-i128:128-f80:128-n8:16:32:64-S128"
target triple = "x86_64-pc-linux-gnu"

@.str.1 = private unnamed_addr constant [110 x i8] c"generated/home/dtcxzyw/WorkSpace/Projects/compilers/llvm-opt-benchmark/bench/nghttp2/nghttp2/lib/nghttp2_hd.c\00", align 1
@.str.133 = private unnamed_addr constant [14 x i8] c"enclen == len\00", align 1
@__PRETTY_FUNCTION__.emit_string = private unnamed_addr constant [57 x i8] c"int emit_string(nghttp2_bufs *, const uint8_t *, size_t)\00", align 1

; Function Attrs: nounwind uwtable
define internal i64 @encode_length(ptr noundef %0, i64 noundef %1, i64 noundef %2) #0 {
  %4 = alloca i64, align 8
  %5 = alloca ptr, align 8
  %6 = alloca i64, align 8
  %7 = alloca i64, align 8
  %8 = alloca i64, align 8
  %9 = alloca ptr, align 8
  %10 = alloca i32, align 4
  store ptr %0, ptr %5, align 8, !tbaa !86
  store i64 %1, ptr %6, align 8, !tbaa !37
  store i64 %2, ptr %7, align 8, !tbaa !37
  call void @llvm.lifetime.start.p0(i64 8, ptr %8) #8
  %11 = load i64, ptr %7, align 8, !tbaa !37
  %12 = trunc i64 %11 to i32
  %13 = shl i32 1, %12
  %14 = sub nsw i32 %13, 1
  %15 = sext i32 %14 to i64
  store i64 %15, ptr %8, align 8, !tbaa !37
  call void @llvm.lifetime.start.p0(i64 8, ptr %9) #8
  %16 = load ptr, ptr %5, align 8, !tbaa !86
  store ptr %16, ptr %9, align 8, !tbaa !86
  %17 = load ptr, ptr %5, align 8, !tbaa !86
  %18 = load i8, ptr %17, align 1, !tbaa !14
  %19 = zext i8 %18 to i64
  %20 = load i64, ptr %8, align 8, !tbaa !37
  %21 = xor i64 %20, -1
  %22 = and i64 %19, %21
  %23 = trunc i64 %22 to i8
  %24 = load ptr, ptr %5, align 8, !tbaa !86
  store i8 %23, ptr %24, align 1, !tbaa !14
  %25 = load i64, ptr %6, align 8, !tbaa !37
  %26 = load i64, ptr %8, align 8, !tbaa !37
  %27 = icmp ult i64 %25, %26
  br i1 %27, label %28, label %36

28:                                               ; preds = %3
  %29 = load ptr, ptr %5, align 8, !tbaa !86
  %30 = load i8, ptr %29, align 1, !tbaa !14
  %31 = zext i8 %30 to i64
  %32 = load i64, ptr %6, align 8, !tbaa !37
  %33 = or i64 %31, %32
  %34 = trunc i64 %33 to i8
  %35 = load ptr, ptr %5, align 8, !tbaa !86
  store i8 %34, ptr %35, align 1, !tbaa !14
  store i64 1, ptr %4, align 8
  store i32 1, ptr %10, align 4
  br label %72

36:                                               ; preds = %3
  %37 = load ptr, ptr %5, align 8, !tbaa !86
  %38 = load i8, ptr %37, align 1, !tbaa !14
  %39 = zext i8 %38 to i64
  %40 = load i64, ptr %8, align 8, !tbaa !37
  %41 = or i64 %39, %40
  %42 = trunc i64 %41 to i8
  %43 = load ptr, ptr %5, align 8, !tbaa !86
  store i8 %42, ptr %43, align 1, !tbaa !14
  %44 = load ptr, ptr %5, align 8, !tbaa !86
  %45 = getelementptr inbounds nuw i8, ptr %44, i32 1
  store ptr %45, ptr %5, align 8, !tbaa !86
  %46 = load i64, ptr %8, align 8, !tbaa !37
  %47 = load i64, ptr %6, align 8, !tbaa !37
  %48 = sub i64 %47, %46
  store i64 %48, ptr %6, align 8, !tbaa !37
  br label %49

49:                                               ; preds = %59, %36
  %50 = load i64, ptr %6, align 8, !tbaa !37
  %51 = icmp uge i64 %50, 128
  br i1 %51, label %52, label %62

52:                                               ; preds = %49
  %53 = load i64, ptr %6, align 8, !tbaa !37
  %54 = and i64 %53, 127
  %55 = or i64 128, %54
  %56 = trunc i64 %55 to i8
  %57 = load ptr, ptr %5, align 8, !tbaa !86
  %58 = getelementptr inbounds nuw i8, ptr %57, i32 1
  store ptr %58, ptr %5, align 8, !tbaa !86
  store i8 %56, ptr %57, align 1, !tbaa !14
  br label %59

59:                                               ; preds = %52
  %60 = load i64, ptr %6, align 8, !tbaa !37
  %61 = lshr i64 %60, 7
  store i64 %61, ptr %6, align 8, !tbaa !37
  br label %49, !llvm.loop !123

62:                                               ; preds = %49
  %63 = load i64, ptr %6, align 8, !tbaa !37
  %64 = trunc i64 %63 to i8
  %65 = load ptr, ptr %5, align 8, !tbaa !86
  %66 = getelementptr inbounds nuw i8, ptr %65, i32 1
  store ptr %66, ptr %5, align 8, !tbaa !86
  store i8 %64, ptr %65, align 1, !tbaa !14
  %67 = load ptr, ptr %5, align 8, !tbaa !86
  %68 = load ptr, ptr %9, align 8, !tbaa !86
  %69 = ptrtoint ptr %67 to i64
  %70 = ptrtoint ptr %68 to i64
  %71 = sub i64 %69, %70
  store i64 %71, ptr %4, align 8
  store i32 1, ptr %10, align 4
  br label %72

72:                                               ; preds = %62, %28
  call void @llvm.lifetime.end.p0(i64 8, ptr %9) #8
  call void @llvm.lifetime.end.p0(i64 8, ptr %8) #8
  %73 = load i64, ptr %4, align 8
  ret i64 %73
}

; Function Attrs: nounwind uwtable
define internal i64 @count_encoded_length(i64 noundef %0, i64 noundef %1) #0 {
  %3 = alloca i64, align 8
  %4 = alloca i64, align 8
  %5 = alloca i64, align 8
  %6 = alloca i64, align 8
  %7 = alloca i64, align 8
  %8 = alloca i32, align 4
  store i64 %0, ptr %4, align 8, !tbaa !37
  store i64 %1, ptr %5, align 8, !tbaa !37
  call void @llvm.lifetime.start.p0(i64 8, ptr %6) #8
  %9 = load i64, ptr %5, align 8, !tbaa !37
  %10 = trunc i64 %9 to i32
  %11 = shl i32 1, %10
  %12 = sub nsw i32 %11, 1
  %13 = sext i32 %12 to i64
  store i64 %13, ptr %6, align 8, !tbaa !37
  call void @llvm.lifetime.start.p0(i64 8, ptr %7) #8
  store i64 0, ptr %7, align 8, !tbaa !37
  %14 = load i64, ptr %4, align 8, !tbaa !37
  %15 = load i64, ptr %6, align 8, !tbaa !37
  %16 = icmp ult i64 %14, %15
  br i1 %16, label %17, label %18

17:                                               ; preds = %2
  store i64 1, ptr %3, align 8
  store i32 1, ptr %8, align 4
  br label %36

18:                                               ; preds = %2
  %19 = load i64, ptr %6, align 8, !tbaa !37
  %20 = load i64, ptr %4, align 8, !tbaa !37
  %21 = sub i64 %20, %19
  store i64 %21, ptr %4, align 8, !tbaa !37
  %22 = load i64, ptr %7, align 8, !tbaa !37
  %23 = add i64 %22, 1
  store i64 %23, ptr %7, align 8, !tbaa !37
  br label %24

24:                                               ; preds = %28, %18
  %25 = load i64, ptr %4, align 8, !tbaa !37
  %26 = icmp uge i64 %25, 128
  br i1 %26, label %27, label %33

27:                                               ; preds = %24
  br label %28

28:                                               ; preds = %27
  %29 = load i64, ptr %4, align 8, !tbaa !37
  %30 = lshr i64 %29, 7
  store i64 %30, ptr %4, align 8, !tbaa !37
  %31 = load i64, ptr %7, align 8, !tbaa !37
  %32 = add i64 %31, 1
  store i64 %32, ptr %7, align 8, !tbaa !37
  br label %24, !llvm.loop !122

33:                                               ; preds = %24
  %34 = load i64, ptr %7, align 8, !tbaa !37
  %35 = add i64 %34, 1
  store i64 %35, ptr %3, align 8
  store i32 1, ptr %8, align 4
  br label %36

36:                                               ; preds = %33, %17
  call void @llvm.lifetime.end.p0(i64 8, ptr %7) #8
  call void @llvm.lifetime.end.p0(i64 8, ptr %6) #8
  %37 = load i64, ptr %3, align 8
  ret i64 %37
}

; Function Attrs: nounwind uwtable
define internal i32 @emit_string(ptr noundef %0, ptr noundef %1, i64 noundef %2) #0 {
  %4 = alloca i32, align 4
  %5 = alloca ptr, align 8
  %6 = alloca ptr, align 8
  %7 = alloca i64, align 8
  %8 = alloca i32, align 4
  %9 = alloca [16 x i8], align 16
  %10 = alloca ptr, align 8
  %11 = alloca i64, align 8
  %12 = alloca i64, align 8
  %13 = alloca i32, align 4
  %14 = alloca i32, align 4
  store ptr %0, ptr %5, align 8, !tbaa !8
  store ptr %1, ptr %6, align 8, !tbaa !86
  store i64 %2, ptr %7, align 8, !tbaa !37
  call void @llvm.lifetime.start.p0(i64 4, ptr %8) #8
  call void @llvm.lifetime.start.p0(i64 16, ptr %9) #8
  call void @llvm.lifetime.start.p0(i64 8, ptr %10) #8
  call void @llvm.lifetime.start.p0(i64 8, ptr %11) #8
  call void @llvm.lifetime.start.p0(i64 8, ptr %12) #8
  call void @llvm.lifetime.start.p0(i64 4, ptr %13) #8
  store i32 0, ptr %13, align 4, !tbaa !12
  %15 = load ptr, ptr %6, align 8, !tbaa !86
  %16 = load i64, ptr %7, align 8, !tbaa !37
  %17 = call i64 @nghttp2_hd_huff_encode_count(ptr noundef %15, i64 noundef %16)
  store i64 %17, ptr %12, align 8, !tbaa !37
  %18 = load i64, ptr %12, align 8, !tbaa !37
  %19 = load i64, ptr %7, align 8, !tbaa !37
  %20 = icmp ult i64 %18, %19
  br i1 %20, label %21, label %22

21:                                               ; preds = %3
  store i32 1, ptr %13, align 4, !tbaa !12
  br label %24

22:                                               ; preds = %3
  %23 = load i64, ptr %7, align 8, !tbaa !37
  store i64 %23, ptr %12, align 8, !tbaa !37
  br label %24

24:                                               ; preds = %22, %21
  %25 = load i64, ptr %12, align 8, !tbaa !37
  %26 = call i64 @count_encoded_length(i64 noundef %25, i64 noundef 7)
  store i64 %26, ptr %11, align 8, !tbaa !37
  br label %27

27:                                               ; preds = %24
  br label %28

28:                                               ; preds = %27
  br label %29

29:                                               ; preds = %28
  %30 = load i64, ptr %11, align 8, !tbaa !37
  %31 = icmp ult i64 16, %30
  br i1 %31, label %32, label %33

32:                                               ; preds = %29
  store i32 -523, ptr %4, align 4
  store i32 1, ptr %14, align 4
  br label %72

33:                                               ; preds = %29
  %34 = getelementptr inbounds [16 x i8], ptr %9, i64 0, i64 0
  store ptr %34, ptr %10, align 8, !tbaa !86
  %35 = load i32, ptr %13, align 4, !tbaa !12
  %36 = icmp ne i32 %35, 0
  %37 = select i1 %36, i32 128, i32 0
  %38 = trunc i32 %37 to i8
  %39 = load ptr, ptr %10, align 8, !tbaa !86
  store i8 %38, ptr %39, align 1, !tbaa !14
  %40 = load ptr, ptr %10, align 8, !tbaa !86
  %41 = load i64, ptr %12, align 8, !tbaa !37
  %42 = call i64 @encode_length(ptr noundef %40, i64 noundef %41, i64 noundef 7)
  %43 = load ptr, ptr %5, align 8, !tbaa !8
  %44 = getelementptr inbounds [16 x i8], ptr %9, i64 0, i64 0
  %45 = load i64, ptr %11, align 8, !tbaa !37
  %46 = call i32 @nghttp2_bufs_add(ptr noundef %43, ptr noundef %44, i64 noundef %45)
  store i32 %46, ptr %8, align 4, !tbaa !12
  %47 = load i32, ptr %8, align 4, !tbaa !12
  %48 = icmp ne i32 %47, 0
  br i1 %48, label %49, label %51

49:                                               ; preds = %33
  %50 = load i32, ptr %8, align 4, !tbaa !12
  store i32 %50, ptr %4, align 4
  store i32 1, ptr %14, align 4
  br label %72

51:                                               ; preds = %33
  %52 = load i32, ptr %13, align 4, !tbaa !12
  %53 = icmp ne i32 %52, 0
  br i1 %53, label %54, label %59

54:                                               ; preds = %51
  %55 = load ptr, ptr %5, align 8, !tbaa !8
  %56 = load ptr, ptr %6, align 8, !tbaa !86
  %57 = load i64, ptr %7, align 8, !tbaa !37
  %58 = call i32 @nghttp2_hd_huff_encode(ptr noundef %55, ptr noundef %56, i64 noundef %57)
  store i32 %58, ptr %8, align 4, !tbaa !12
  br label %70

59:                                               ; preds = %51
  %60 = load i64, ptr %12, align 8, !tbaa !37
  %61 = load i64, ptr %7, align 8, !tbaa !37
  %62 = icmp eq i64 %60, %61
  br i1 %62, label %63, label %64

63:                                               ; preds = %59
  br label %65

64:                                               ; preds = %59
  call void @__assert_fail(ptr noundef @.str.133, ptr noundef @.str.1, i32 noundef 1022, ptr noundef @__PRETTY_FUNCTION__.emit_string) #9
  unreachable

65:                                               ; preds = %63
  %66 = load ptr, ptr %5, align 8, !tbaa !8
  %67 = load ptr, ptr %6, align 8, !tbaa !86
  %68 = load i64, ptr %7, align 8, !tbaa !37
  %69 = call i32 @nghttp2_bufs_add(ptr noundef %66, ptr noundef %67, i64 noundef %68)
  store i32 %69, ptr %8, align 4, !tbaa !12
  br label %70

70:                                               ; preds = %65, %54
  %71 = load i32, ptr %8, align 4, !tbaa !12
  store i32 %71, ptr %4, align 4
  store i32 1, ptr %14, align 4
  br label %72

72:                                               ; preds = %70, %49, %32
  call void @llvm.lifetime.end.p0(i64 4, ptr %13) #8
  call void @llvm.lifetime.end.p0(i64 8, ptr %12) #8
  call void @llvm.lifetime.end.p0(i64 8, ptr %11) #8
  call void @llvm.lifetime.end.p0(i64 8, ptr %10) #8
  call void @llvm.lifetime.end.p0(i64 16, ptr %9) #8
  call void @llvm.lifetime.end.p0(i64 4, ptr %8) #8
  %73 = load i32, ptr %4, align 4
  ret i32 %73
}