; Function Attrs: nounwind uwtable
define internal fastcc i32 @emit_string(ptr noundef %0, ptr noundef %1, i64 noundef %2) unnamed_addr #0 {
  %4 = alloca [16 x i8], align 16
  call void @llvm.lifetime.start.p0(i64 16, ptr nonnull %4) #12
  %5 = tail call i64 @nghttp2_hd_huff_encode_count(ptr noundef %1, i64 noundef %2) #12
  %.not = icmp ult i64 %5, %2
  %. = tail call i64 @llvm.umin.i64(i64 %5, i64 %2)
  %6 = icmp ult i64 %., 127
  br i1 %6, label %14, label %7

7:                                                ; preds = %3
  %8 = add i64 %., -127
  %9 = icmp ugt i64 %8, 127
  br i1 %9, label %.lr.ph.i, label %18

.lr.ph.i:                                         ; preds = %7, %.lr.ph.i
  %.016.i = phi i64 [ %11, %.lr.ph.i ], [ 1, %7 ]
  %.01215.i = phi i64 [ %10, %.lr.ph.i ], [ %8, %7 ]
  %10 = lshr i64 %.01215.i, 7
  %11 = add nuw nsw i64 %.016.i, 1
  %12 = icmp ugt i64 %.01215.i, 16383
  br i1 %12, label %.lr.ph.i, label %count_encoded_length.exit, !llvm.loop !79

count_encoded_length.exit:                        ; preds = %.lr.ph.i
  %13 = icmp samesign ugt i64 %.016.i, 14
  br i1 %13, label %33, label %.lr.ph.i33.preheader

14:                                               ; preds = %3
  %15 = select i1 %.not, i8 -128, i8 0
  %16 = trunc nuw i64 %. to i8
  %17 = or disjoint i8 %15, %16
  store i8 %17, ptr %4, align 16, !tbaa !11
  br label %encode_length.exit

18:                                               ; preds = %7
  %19 = select i1 %.not, i8 -1, i8 127
  store i8 %19, ptr %4, align 16, !tbaa !11
  %.02428.i = getelementptr inbounds nuw i8, ptr %4, i64 1
  br label %._crit_edge.i

.lr.ph.i33.preheader:                             ; preds = %count_encoded_length.exit
  %20 = add nuw nsw i64 %.016.i, 2
  %21 = select i1 %.not, i8 -1, i8 127
  store i8 %21, ptr %4, align 16, !tbaa !11
  %.02428.i45 = getelementptr inbounds nuw i8, ptr %4, i64 1
  br label %.lr.ph.i33

.lr.ph.i33:                                       ; preds = %.lr.ph.i33.preheader, %.lr.ph.i33
  %.02430.i = phi ptr [ %.024.i, %.lr.ph.i33 ], [ %.02428.i45, %.lr.ph.i33.preheader ]
  %.02529.i = phi i64 [ %24, %.lr.ph.i33 ], [ %8, %.lr.ph.i33.preheader ]
  %22 = trunc i64 %.02529.i to i8
  %23 = or i8 %22, -128
  store i8 %23, ptr %.02430.i, align 1, !tbaa !11
  %24 = lshr i64 %.02529.i, 7
  %.024.i = getelementptr inbounds nuw i8, ptr %.02430.i, i64 1
  %25 = icmp ugt i64 %.02529.i, 16383
  br i1 %25, label %.lr.ph.i33, label %._crit_edge.i, !llvm.loop !80

._crit_edge.i:                                    ; preds = %.lr.ph.i33, %18
  %.011.i353846 = phi i64 [ 2, %18 ], [ %20, %.lr.ph.i33 ]
  %.025.lcssa.i = phi i64 [ %8, %18 ], [ %24, %.lr.ph.i33 ]
  %.024.lcssa.i = phi ptr [ %.02428.i, %18 ], [ %.024.i, %.lr.ph.i33 ]
  %26 = trunc nuw nsw i64 %.025.lcssa.i to i8
  store i8 %26, ptr %.024.lcssa.i, align 1, !tbaa !11
  br label %encode_length.exit

encode_length.exit:                               ; preds = %14, %._crit_edge.i
  %.011.i3537 = phi i64 [ 1, %14 ], [ %.011.i353846, %._crit_edge.i ]
  %27 = call i32 @nghttp2_bufs_add(ptr noundef %0, ptr noundef nonnull %4, i64 noundef %.011.i3537) #12
  %.not32 = icmp eq i32 %27, 0
  br i1 %.not32, label %28, label %33

28:                                               ; preds = %encode_length.exit
  br i1 %.not, label %29, label %31

29:                                               ; preds = %28
  %30 = call i32 @nghttp2_hd_huff_encode(ptr noundef %0, ptr noundef %1, i64 noundef %2) #12
  br label %33

31:                                               ; preds = %28
  %32 = call i32 @nghttp2_bufs_add(ptr noundef %0, ptr noundef %1, i64 noundef %2) #12
  br label %33

33:                                               ; preds = %29, %31, %encode_length.exit, %count_encoded_length.exit
  %.026 = phi i32 [ -523, %count_encoded_length.exit ], [ %27, %encode_length.exit ], [ %30, %29 ], [ %32, %31 ]
  call void @llvm.lifetime.end.p0(i64 16, ptr nonnull %4) #12
  ret i32 %.026
}